target datalayout = "e-m:e-p270:32:32-p271:32:32-p272:64:64-i64:64-i128:128-f80:128-n8:16:32:64-S128"
target triple = "x86_64-pc-linux-gnu"

%struct.PROV_ECDSA_CTX = type { ptr, ptr, ptr, i32, i8, [256 x i8], i64, [50 x i8], ptr, ptr, i64, ptr, i64, ptr, ptr, i32 }

@.str = private unnamed_addr constant [59 x i8] c"../openssl/providers/implementations/signature/ecdsa_sig.c\00", align 1

; Function Attrs: nounwind uwtable
define internal ptr @ecdsa_newctx(ptr noundef %0, ptr noundef %1) #0 {
  %3 = alloca ptr, align 8
  %4 = alloca ptr, align 8
  %5 = alloca ptr, align 8
  %6 = alloca ptr, align 8
  %7 = alloca i32, align 4
  store ptr %0, ptr %4, align 8, !tbaa !3
  store ptr %1, ptr %5, align 8, !tbaa !7
  call void @llvm.lifetime.start.p0(i64 8, ptr %6) #7
  %8 = call i32 @ossl_prov_is_running()
  %9 = icmp ne i32 %8, 0
  br i1 %9, label %11, label %10

10:                                               ; preds = %2
  store ptr null, ptr %3, align 8
  store i32 1, ptr %7, align 4
  br label %38

11:                                               ; preds = %2
  %12 = call noalias ptr @CRYPTO_zalloc(i64 noundef 416, ptr noundef @.str, i32 noundef 149)
  store ptr %12, ptr %6, align 8, !tbaa !3
  %13 = load ptr, ptr %6, align 8, !tbaa !3
  %14 = icmp eq ptr %13, null
  br i1 %14, label %15, label %16

15:                                               ; preds = %11
  store ptr null, ptr %3, align 8
  store i32 1, ptr %7, align 4
  br label %38

16:                                               ; preds = %11
  %17 = load ptr, ptr %6, align 8, !tbaa !3
  %18 = getelementptr inbounds nuw %struct.PROV_ECDSA_CTX, ptr %17, i32 0, i32 4
  %19 = load i8, ptr %18, align 4
  %20 = and i8 %19, -3
  %21 = or i8 %20, 2
  store i8 %21, ptr %18, align 4
  %22 = load ptr, ptr %4, align 8, !tbaa !3
  %23 = call ptr @ossl_prov_ctx_get0_libctx(ptr noundef %22)
  %24 = load ptr, ptr %6, align 8, !tbaa !3
  %25 = getelementptr inbounds nuw %struct.PROV_ECDSA_CTX, ptr %24, i32 0, i32 0
  store ptr %23, ptr %25, align 8, !tbaa !9
  %26 = load ptr, ptr %5, align 8, !tbaa !7
  %27 = icmp ne ptr %26, null
  br i1 %27, label %28, label %36

28:                                               ; preds = %16
  %29 = load ptr, ptr %5, align 8, !tbaa !7
  %30 = call noalias ptr @CRYPTO_strdup(ptr noundef %29, ptr noundef @.str, i32 noundef 159)
  %31 = load ptr, ptr %6, align 8, !tbaa !3
  %32 = getelementptr inbounds nuw %struct.PROV_ECDSA_CTX, ptr %31, i32 0, i32 1
  store ptr %30, ptr %32, align 8, !tbaa !18
  %33 = icmp eq ptr %30, null
  br i1 %33, label %34, label %36

34:                                               ; preds = %28
  %35 = load ptr, ptr %6, align 8, !tbaa !3
  call void @CRYPTO_free(ptr noundef %35, ptr noundef @.str, i32 noundef 160)
  store ptr null, ptr %6, align 8, !tbaa !3
  br label %36

36:                                               ; preds = %34, %28, %16
  %37 = load ptr, ptr %6, align 8, !tbaa !3
  store ptr %37, ptr %3, align 8
  store i32 1, ptr %7, align 4
  br label %38

38:                                               ; preds = %36, %15, %10
  call void @llvm.lifetime.end.p0(i64 8, ptr %6) #7
  %39 = load ptr, ptr %3, align 8
  ret ptr %39
}