; Function Attrs: nounwind uwtable
define internal ptr @ecdsa_newctx(ptr noundef %0, ptr noundef %1) #0 {
  %3 = tail call i32 @ossl_prov_is_running() #8
  %.not = icmp eq i32 %3, 0
  br i1 %.not, label %17, label %4

4:                                                ; preds = %2
  %5 = tail call noalias ptr @CRYPTO_zalloc(i64 noundef 416, ptr noundef nonnull @.str, i32 noundef 149) #8
  %6 = icmp eq ptr %5, null
  br i1 %6, label %17, label %7

7:                                                ; preds = %4
  %8 = getelementptr inbounds nuw i8, ptr %5, i64 28
  %9 = load i8, ptr %8, align 4
  %10 = or i8 %9, 2
  store i8 %10, ptr %8, align 4
  %11 = tail call ptr @ossl_prov_ctx_get0_libctx(ptr noundef %0) #8
  store ptr %11, ptr %5, align 8, !tbaa !3
  %.not13 = icmp eq ptr %1, null
  br i1 %.not13, label %17, label %12

12:                                               ; preds = %7
  %13 = tail call noalias ptr @CRYPTO_strdup(ptr noundef nonnull %1, ptr noundef nonnull @.str, i32 noundef 159) #8
  %14 = getelementptr inbounds nuw i8, ptr %5, i64 8
  store ptr %13, ptr %14, align 8, !tbaa !16
  %15 = icmp eq ptr %13, null
  br i1 %15, label %16, label %17

16:                                               ; preds = %12
  tail call void @CRYPTO_free(ptr noundef nonnull %5, ptr noundef nonnull @.str, i32 noundef 160) #8
  br label %17

17:                                               ; preds = %7, %12, %16, %4, %2
  %.010 = phi ptr [ null, %2 ], [ null, %4 ], [ null, %16 ], [ %5, %12 ], [ %5, %7 ]
  ret ptr %.010
}